; Function Attrs: mustprogress uwtable
define hidden noundef zeroext i1 @_ZN6google8protobuf8internal14ParseNamedEnumEPKNS0_14EnumDescriptorERKNSt7__cxx1112basic_stringIcSt11char_traitsIcESaIcEEEPi(ptr noundef nonnull %0, ptr noundef nonnull align 8 dereferenceable(32) %1, ptr noundef writeonly captures(none) %2) local_unnamed_addr #3 {
  %4 = tail call noundef ptr @_ZNK6google8protobuf14EnumDescriptor15FindValueByNameERKNSt7__cxx1112basic_stringIcSt11char_traitsIcESaIcEEE(ptr noundef nonnull align 8 dereferenceable(72) %0, ptr noundef nonnull align 8 dereferenceable(32) %1)
  %5 = icmp ne ptr %4, null
  br i1 %5, label %6, label %9

6:                                                ; preds = %3
  %7 = getelementptr inbounds nuw i8, ptr %4, i64 4
  %8 = load i32, ptr %7, align 4, !tbaa !3
  store i32 %8, ptr %2, align 4, !tbaa !15
  br label %9

9:                                                ; preds = %3, %6
  ret i1 %5
}